target datalayout = "e-m:e-p270:32:32-p271:32:32-p272:64:64-i64:64-i128:128-f80:128-n8:16:32:64-S128"
target triple = "x86_64-pc-linux-gnu"

%struct.evp_cipher_ctx_st = type { ptr, ptr, ptr, i32, i32, i32, [16 x i8], [16 x i8], [32 x i8], i32, i32, i32, i32, [32 x i8] }
%struct.evp_cipher_st = type { i32, i32, i32, i32, i32, i32, ptr, ptr, ptr, ptr, ptr }

; Function Attrs: nounwind uwtable
define hidden i32 @EVP_DecryptUpdate(ptr noundef %0, ptr noundef %1, ptr noundef %2, ptr noundef %3, i32 noundef %4) #0 {
  %6 = alloca i32, align 4
  %7 = alloca ptr, align 8
  %8 = alloca ptr, align 8
  %9 = alloca ptr, align 8
  %10 = alloca ptr, align 8
  %11 = alloca i32, align 4
  %12 = alloca i32, align 4
  %13 = alloca i32, align 4
  %14 = alloca i32, align 4
  %15 = alloca i32, align 4
  store ptr %0, ptr %7, align 8, !tbaa !10
  store ptr %1, ptr %8, align 8, !tbaa !25
  store ptr %2, ptr %9, align 8, !tbaa !39
  store ptr %3, ptr %10, align 8, !tbaa !25
  store i32 %4, ptr %11, align 4, !tbaa !6
  call void @llvm.lifetime.start.p0(i64 4, ptr %12) #7
  call void @llvm.lifetime.start.p0(i64 4, ptr %13) #7
  %16 = load ptr, ptr %7, align 8, !tbaa !10
  %17 = getelementptr inbounds nuw %struct.evp_cipher_ctx_st, ptr %16, i32 0, i32 0
  %18 = load ptr, ptr %17, align 8, !tbaa !13
  %19 = getelementptr inbounds nuw %struct.evp_cipher_st, ptr %18, i32 0, i32 5
  %20 = load i32, ptr %19, align 4, !tbaa !20
  %21 = and i32 %20, 1024
  %22 = icmp ne i32 %21, 0
  br i1 %22, label %23, label %44

23:                                               ; preds = %5
  call void @llvm.lifetime.start.p0(i64 4, ptr %14) #7
  %24 = load ptr, ptr %7, align 8, !tbaa !10
  %25 = getelementptr inbounds nuw %struct.evp_cipher_ctx_st, ptr %24, i32 0, i32 0
  %26 = load ptr, ptr %25, align 8, !tbaa !13
  %27 = getelementptr inbounds nuw %struct.evp_cipher_st, ptr %26, i32 0, i32 8
  %28 = load ptr, ptr %27, align 8, !tbaa !41
  %29 = load ptr, ptr %7, align 8, !tbaa !10
  %30 = load ptr, ptr %8, align 8, !tbaa !25
  %31 = load ptr, ptr %10, align 8, !tbaa !25
  %32 = load i32, ptr %11, align 4, !tbaa !6
  %33 = sext i32 %32 to i64
  %34 = call i32 %28(ptr noundef %29, ptr noundef %30, ptr noundef %31, i64 noundef %33)
  store i32 %34, ptr %14, align 4, !tbaa !6
  %35 = load i32, ptr %14, align 4, !tbaa !6
  %36 = icmp slt i32 %35, 0
  br i1 %36, label %37, label %39

37:                                               ; preds = %23
  %38 = load ptr, ptr %9, align 8, !tbaa !39
  store i32 0, ptr %38, align 4, !tbaa !6
  store i32 0, ptr %6, align 4
  store i32 1, ptr %15, align 4
  br label %43

39:                                               ; preds = %23
  %40 = load i32, ptr %14, align 4, !tbaa !6
  %41 = load ptr, ptr %9, align 8, !tbaa !39
  store i32 %40, ptr %41, align 4, !tbaa !6
  br label %42

42:                                               ; preds = %39
  store i32 1, ptr %6, align 4
  store i32 1, ptr %15, align 4
  br label %43

43:                                               ; preds = %42, %37
  call void @llvm.lifetime.end.p0(i64 4, ptr %14) #7
  br label %133

44:                                               ; preds = %5
  %45 = load i32, ptr %11, align 4, !tbaa !6
  %46 = icmp sle i32 %45, 0
  br i1 %46, label %47, label %52

47:                                               ; preds = %44
  %48 = load ptr, ptr %9, align 8, !tbaa !39
  store i32 0, ptr %48, align 4, !tbaa !6
  %49 = load i32, ptr %11, align 4, !tbaa !6
  %50 = icmp eq i32 %49, 0
  %51 = zext i1 %50 to i32
  store i32 %51, ptr %6, align 4
  store i32 1, ptr %15, align 4
  br label %133

52:                                               ; preds = %44
  %53 = load ptr, ptr %7, align 8, !tbaa !10
  %54 = getelementptr inbounds nuw %struct.evp_cipher_ctx_st, ptr %53, i32 0, i32 5
  %55 = load i32, ptr %54, align 8, !tbaa !30
  %56 = and i32 %55, 2048
  %57 = icmp ne i32 %56, 0
  br i1 %57, label %58, label %65

58:                                               ; preds = %52
  %59 = load ptr, ptr %7, align 8, !tbaa !10
  %60 = load ptr, ptr %8, align 8, !tbaa !25
  %61 = load ptr, ptr %9, align 8, !tbaa !39
  %62 = load ptr, ptr %10, align 8, !tbaa !25
  %63 = load i32, ptr %11, align 4, !tbaa !6
  %64 = call i32 @EVP_EncryptUpdate(ptr noundef %59, ptr noundef %60, ptr noundef %61, ptr noundef %62, i32 noundef %63)
  store i32 %64, ptr %6, align 4
  store i32 1, ptr %15, align 4
  br label %133

65:                                               ; preds = %52
  %66 = load ptr, ptr %7, align 8, !tbaa !10
  %67 = getelementptr inbounds nuw %struct.evp_cipher_ctx_st, ptr %66, i32 0, i32 0
  %68 = load ptr, ptr %67, align 8, !tbaa !13
  %69 = getelementptr inbounds nuw %struct.evp_cipher_st, ptr %68, i32 0, i32 1
  %70 = load i32, ptr %69, align 4, !tbaa !35
  store i32 %70, ptr %13, align 4, !tbaa !6
  %71 = load ptr, ptr %7, align 8, !tbaa !10
  %72 = getelementptr inbounds nuw %struct.evp_cipher_ctx_st, ptr %71, i32 0, i32 11
  %73 = load i32, ptr %72, align 4, !tbaa !34
  %74 = icmp ne i32 %73, 0
  br i1 %74, label %75, label %86

75:                                               ; preds = %65
  %76 = load ptr, ptr %8, align 8, !tbaa !25
  %77 = load ptr, ptr %7, align 8, !tbaa !10
  %78 = getelementptr inbounds nuw %struct.evp_cipher_ctx_st, ptr %77, i32 0, i32 13
  %79 = getelementptr inbounds [32 x i8], ptr %78, i64 0, i64 0
  %80 = load i32, ptr %13, align 4, !tbaa !6
  %81 = zext i32 %80 to i64
  call void @llvm.memcpy.p0.p0.i64(ptr align 1 %76, ptr align 4 %79, i64 %81, i1 false)
  %82 = load i32, ptr %13, align 4, !tbaa !6
  %83 = load ptr, ptr %8, align 8, !tbaa !25
  %84 = zext i32 %82 to i64
  %85 = getelementptr inbounds nuw i8, ptr %83, i64 %84
  store ptr %85, ptr %8, align 8, !tbaa !25
  store i32 1, ptr %12, align 4, !tbaa !6
  br label %87

86:                                               ; preds = %65
  store i32 0, ptr %12, align 4, !tbaa !6
  br label %87

87:                                               ; preds = %86, %75
  %88 = load ptr, ptr %7, align 8, !tbaa !10
  %89 = load ptr, ptr %8, align 8, !tbaa !25
  %90 = load ptr, ptr %9, align 8, !tbaa !39
  %91 = load ptr, ptr %10, align 8, !tbaa !25
  %92 = load i32, ptr %11, align 4, !tbaa !6
  %93 = call i32 @EVP_EncryptUpdate(ptr noundef %88, ptr noundef %89, ptr noundef %90, ptr noundef %91, i32 noundef %92)
  %94 = icmp ne i32 %93, 0
  br i1 %94, label %96, label %95

95:                                               ; preds = %87
  store i32 0, ptr %6, align 4
  store i32 1, ptr %15, align 4
  br label %133

96:                                               ; preds = %87
  %97 = load i32, ptr %13, align 4, !tbaa !6
  %98 = icmp ugt i32 %97, 1
  br i1 %98, label %99, label %121

99:                                               ; preds = %96
  %100 = load ptr, ptr %7, align 8, !tbaa !10
  %101 = getelementptr inbounds nuw %struct.evp_cipher_ctx_st, ptr %100, i32 0, i32 9
  %102 = load i32, ptr %101, align 4, !tbaa !33
  %103 = icmp ne i32 %102, 0
  br i1 %103, label %121, label %104

104:                                              ; preds = %99
  %105 = load i32, ptr %13, align 4, !tbaa !6
  %106 = load ptr, ptr %9, align 8, !tbaa !39
  %107 = load i32, ptr %106, align 4, !tbaa !6
  %108 = sub i32 %107, %105
  store i32 %108, ptr %106, align 4, !tbaa !6
  %109 = load ptr, ptr %7, align 8, !tbaa !10
  %110 = getelementptr inbounds nuw %struct.evp_cipher_ctx_st, ptr %109, i32 0, i32 11
  store i32 1, ptr %110, align 4, !tbaa !34
  %111 = load ptr, ptr %7, align 8, !tbaa !10
  %112 = getelementptr inbounds nuw %struct.evp_cipher_ctx_st, ptr %111, i32 0, i32 13
  %113 = getelementptr inbounds [32 x i8], ptr %112, i64 0, i64 0
  %114 = load ptr, ptr %8, align 8, !tbaa !25
  %115 = load ptr, ptr %9, align 8, !tbaa !39
  %116 = load i32, ptr %115, align 4, !tbaa !6
  %117 = sext i32 %116 to i64
  %118 = getelementptr inbounds i8, ptr %114, i64 %117
  %119 = load i32, ptr %13, align 4, !tbaa !6
  %120 = zext i32 %119 to i64
  call void @llvm.memcpy.p0.p0.i64(ptr align 4 %113, ptr align 1 %118, i64 %120, i1 false)
  br label %124

121:                                              ; preds = %99, %96
  %122 = load ptr, ptr %7, align 8, !tbaa !10
  %123 = getelementptr inbounds nuw %struct.evp_cipher_ctx_st, ptr %122, i32 0, i32 11
  store i32 0, ptr %123, align 4, !tbaa !34
  br label %124

124:                                              ; preds = %121, %104
  %125 = load i32, ptr %12, align 4, !tbaa !6
  %126 = icmp ne i32 %125, 0
  br i1 %126, label %127, label %132

127:                                              ; preds = %124
  %128 = load i32, ptr %13, align 4, !tbaa !6
  %129 = load ptr, ptr %9, align 8, !tbaa !39
  %130 = load i32, ptr %129, align 4, !tbaa !6
  %131 = add i32 %130, %128
  store i32 %131, ptr %129, align 4, !tbaa !6
  br label %132

132:                                              ; preds = %127, %124
  store i32 1, ptr %6, align 4
  store i32 1, ptr %15, align 4
  br label %133

133:                                              ; preds = %132, %95, %58, %47, %43
  call void @llvm.lifetime.end.p0(i64 4, ptr %13) #7
  call void @llvm.lifetime.end.p0(i64 4, ptr %12) #7
  %134 = load i32, ptr %6, align 4
  ret i32 %134
}