; Function Attrs: nounwind uwtable
define hidden range(i32 0, 2) i32 @EVP_DecryptUpdate(ptr noundef %0, ptr noundef %1, ptr noundef captures(none) %2, ptr noundef %3, i32 noundef %4) local_unnamed_addr #0 {
  %6 = load ptr, ptr %0, align 8, !tbaa !6
  %7 = getelementptr inbounds nuw i8, ptr %6, i64 20
  %8 = load i32, ptr %7, align 4, !tbaa !17
  %9 = and i32 %8, 1024
  %.not = icmp eq i32 %9, 0
  br i1 %.not, label %16, label %10

10:                                               ; preds = %5
  %11 = getelementptr inbounds nuw i8, ptr %6, i64 40
  %12 = load ptr, ptr %11, align 8, !tbaa !30
  %13 = sext i32 %4 to i64
  %14 = tail call i32 %12(ptr noundef nonnull %0, ptr noundef %1, ptr noundef %3, i64 noundef %13) #14
  %15 = icmp sgt i32 %14, -1
  %. = tail call i32 @llvm.smax.i32(i32 %14, i32 0)
  %.55 = zext i1 %15 to i32
  store i32 %., ptr %2, align 4, !tbaa !31
  br label %56

16:                                               ; preds = %5
  %17 = icmp slt i32 %4, 1
  br i1 %17, label %18, label %21

18:                                               ; preds = %16
  store i32 0, ptr %2, align 4, !tbaa !31
  %19 = icmp eq i32 %4, 0
  %20 = zext i1 %19 to i32
  br label %56

21:                                               ; preds = %16
  %22 = getelementptr inbounds nuw i8, ptr %0, i64 32
  %23 = load i32, ptr %22, align 8, !tbaa !22
  %24 = and i32 %23, 2048
  %.not50 = icmp eq i32 %24, 0
  br i1 %.not50, label %27, label %25

25:                                               ; preds = %21
  %26 = tail call i32 @EVP_EncryptUpdate(ptr noundef nonnull %0, ptr noundef %1, ptr noundef %2, ptr noundef %3, i32 noundef %4)
  br label %56

27:                                               ; preds = %21
  %28 = getelementptr inbounds nuw i8, ptr %6, i64 4
  %29 = load i32, ptr %28, align 4, !tbaa !28
  %30 = getelementptr inbounds nuw i8, ptr %0, i64 108
  %31 = load i32, ptr %30, align 4, !tbaa !27
  %.not51 = icmp eq i32 %31, 0
  br i1 %.not51, label %36, label %32

32:                                               ; preds = %27
  %33 = getelementptr inbounds nuw i8, ptr %0, i64 116
  %34 = zext i32 %29 to i64
  tail call void @llvm.memcpy.p0.p0.i64(ptr align 1 %1, ptr nonnull align 4 %33, i64 %34, i1 false)
  %35 = getelementptr inbounds nuw i8, ptr %1, i64 %34
  br label %36

36:                                               ; preds = %27, %32
  %.044 = phi ptr [ %35, %32 ], [ %1, %27 ]
  %37 = tail call i32 @EVP_EncryptUpdate(ptr noundef nonnull %0, ptr noundef %.044, ptr noundef %2, ptr noundef %3, i32 noundef %4)
  %.not52 = icmp eq i32 %37, 0
  br i1 %.not52, label %56, label %38

38:                                               ; preds = %36
  %39 = icmp ugt i32 %29, 1
  br i1 %39, label %40, label %51

40:                                               ; preds = %38
  %41 = getelementptr inbounds nuw i8, ptr %0, i64 100
  %42 = load i32, ptr %41, align 4, !tbaa !26
  %.not53 = icmp eq i32 %42, 0
  br i1 %.not53, label %43, label %51

43:                                               ; preds = %40
  %44 = load i32, ptr %2, align 4, !tbaa !31
  %45 = sub i32 %44, %29
  store i32 %45, ptr %2, align 4, !tbaa !31
  store i32 1, ptr %30, align 4, !tbaa !27
  %46 = getelementptr inbounds nuw i8, ptr %0, i64 116
  %47 = load i32, ptr %2, align 4, !tbaa !31
  %48 = sext i32 %47 to i64
  %49 = getelementptr inbounds i8, ptr %.044, i64 %48
  %50 = zext i32 %29 to i64
  tail call void @llvm.memcpy.p0.p0.i64(ptr nonnull align 4 %46, ptr align 1 %49, i64 %50, i1 false)
  br label %52

51:                                               ; preds = %40, %38
  store i32 0, ptr %30, align 4, !tbaa !27
  br label %52

52:                                               ; preds = %51, %43
  br i1 %.not51, label %56, label %53

53:                                               ; preds = %52
  %54 = load i32, ptr %2, align 4, !tbaa !31
  %55 = add i32 %54, %29
  store i32 %55, ptr %2, align 4, !tbaa !31
  br label %56

56:                                               ; preds = %52, %53, %36, %25, %18, %10
  %.1 = phi i32 [ %.55, %10 ], [ %20, %18 ], [ %26, %25 ], [ 0, %36 ], [ 1, %53 ], [ 1, %52 ]
  ret i32 %.1
}